; Function Attrs: mustprogress nofree norecurse nosync nounwind willreturn memory(read, inaccessiblemem: none) uwtable
define { <2 x float>, <2 x float> } @nk_window_get_bounds(ptr noundef readonly captures(address_is_null) %0) local_unnamed_addr #36 {
  %.not = icmp eq ptr %0, null
  br i1 %.not, label %9, label %2

2:                                                ; preds = %1
  %3 = getelementptr inbounds nuw i8, ptr %0, i64 18520
  %4 = load ptr, ptr %3, align 8, !tbaa !824
  %.not4 = icmp eq ptr %4, null
  br i1 %.not4, label %9, label %5

5:                                                ; preds = %2
  %6 = getelementptr inbounds nuw i8, ptr %4, i64 76
  %.sroa.0.0.copyload = load <2 x float>, ptr %6, align 4
  %.sroa.3.0..sroa_idx = getelementptr inbounds nuw i8, ptr %4, i64 84
  %.sroa.3.0.copyload = load <2 x float>, ptr %.sroa.3.0..sroa_idx, align 4
  %7 = insertvalue { <2 x float>, <2 x float> } poison, <2 x float> %.sroa.0.0.copyload, 0
  %8 = insertvalue { <2 x float>, <2 x float> } %7, <2 x float> %.sroa.3.0.copyload, 1
  br label %9

9:                                                ; preds = %1, %2, %5
  %.fca.1.insert.merged = phi { <2 x float>, <2 x float> } [ %8, %5 ], [ zeroinitializer, %2 ], [ zeroinitializer, %1 ]
  ret { <2 x float>, <2 x float> } %.fca.1.insert.merged
}